target datalayout = "e-m:e-p270:32:32-p271:32:32-p272:64:64-i64:64-i128:128-f80:128-n8:16:32:64-S128"
target triple = "x86_64-pc-linux-gnu"

@_ZL14convertLamAlef = internal constant [8 x i16] [i16 1570, i16 1570, i16 1571, i16 1571, i16 1573, i16 1573, i16 1575, i16 1575], align 16

; Function Attrs: inlinehint mustprogress nounwind uwtable
define internal noundef i32 @_ZL13isLamAlefCharDs(i16 noundef zeroext %0) #3 {
  %2 = alloca i16, align 2
  store i16 %0, ptr %2, align 2, !tbaa !16
  %3 = load i16, ptr %2, align 2, !tbaa !16
  %4 = zext i16 %3 to i32
  %5 = icmp sge i32 %4, 65269
  br i1 %5, label %6, label %10

6:                                                ; preds = %1
  %7 = load i16, ptr %2, align 2, !tbaa !16
  %8 = zext i16 %7 to i32
  %9 = icmp sle i32 %8, 65276
  br label %10

10:                                               ; preds = %6, %1
  %11 = phi i1 [ false, %1 ], [ %9, %6 ]
  %12 = zext i1 %11 to i32
  ret i32 %12
}

; Function Attrs: mustprogress uwtable
define internal noundef i32 @_ZL23expandCompositCharAtEndPDsiiP10UErrorCode(ptr noundef %0, i32 noundef %1, i32 noundef %2, ptr noundef %3) #0 {
  %5 = alloca i32, align 4
  %6 = alloca ptr, align 8
  %7 = alloca i32, align 4
  %8 = alloca i32, align 4
  %9 = alloca ptr, align 8
  %10 = alloca i32, align 4
  %11 = alloca i32, align 4
  %12 = alloca i32, align 4
  %13 = alloca i32, align 4
  %14 = alloca ptr, align 8
  %15 = alloca i32, align 4
  store ptr %0, ptr %6, align 8, !tbaa !3
  store i32 %1, ptr %7, align 4, !tbaa !8
  store i32 %2, ptr %8, align 4, !tbaa !8
  store ptr %3, ptr %9, align 8, !tbaa !10
  call void @llvm.lifetime.start.p0(i64 4, ptr %10) #8
  store i32 0, ptr %10, align 4, !tbaa !8
  call void @llvm.lifetime.start.p0(i64 4, ptr %11) #8
  store i32 0, ptr %11, align 4, !tbaa !8
  call void @llvm.lifetime.start.p0(i64 4, ptr %12) #8
  store i32 0, ptr %12, align 4, !tbaa !8
  call void @llvm.lifetime.start.p0(i64 4, ptr %13) #8
  %16 = load i32, ptr %7, align 4, !tbaa !8
  store i32 %16, ptr %13, align 4, !tbaa !8
  call void @llvm.lifetime.start.p0(i64 8, ptr %14) #8
  store ptr null, ptr %14, align 8, !tbaa !3
  %17 = load i32, ptr %7, align 4, !tbaa !8
  %18 = add nsw i32 %17, 1
  %19 = mul nsw i32 %18, 2
  %20 = sext i32 %19 to i64
  %21 = call noalias ptr @uprv_malloc_77(i64 noundef %20) #9
  store ptr %21, ptr %14, align 8, !tbaa !3
  %22 = load ptr, ptr %14, align 8, !tbaa !3
  %23 = icmp eq ptr %22, null
  br i1 %23, label %24, label %26

24:                                               ; preds = %4
  %25 = load ptr, ptr %9, align 8, !tbaa !10
  store i32 7, ptr %25, align 4, !tbaa !11
  store i32 0, ptr %5, align 4
  store i32 1, ptr %15, align 4
  br label %166

26:                                               ; preds = %4
  %27 = load ptr, ptr %14, align 8, !tbaa !3
  %28 = load i32, ptr %7, align 4, !tbaa !8
  %29 = add nsw i32 %28, 1
  %30 = mul nsw i32 %29, 2
  %31 = sext i32 %30 to i64
  call void @llvm.memset.p0.i64(ptr align 2 %27, i8 0, i64 %31, i1 false)
  br label %32

32:                                               ; preds = %41, %26
  %33 = load ptr, ptr %6, align 8, !tbaa !3
  %34 = load i32, ptr %13, align 4, !tbaa !8
  %35 = sub nsw i32 %34, 1
  %36 = sext i32 %35 to i64
  %37 = getelementptr inbounds i16, ptr %33, i64 %36
  %38 = load i16, ptr %37, align 2, !tbaa !16
  %39 = zext i16 %38 to i32
  %40 = icmp eq i32 %39, 32
  br i1 %40, label %41, label %46

41:                                               ; preds = %32
  %42 = load i32, ptr %12, align 4, !tbaa !8
  %43 = add nsw i32 %42, 1
  store i32 %43, ptr %12, align 4, !tbaa !8
  %44 = load i32, ptr %13, align 4, !tbaa !8
  %45 = add nsw i32 %44, -1
  store i32 %45, ptr %13, align 4, !tbaa !8
  br label %32, !llvm.loop !51

46:                                               ; preds = %32
  %47 = load i32, ptr %7, align 4, !tbaa !8
  %48 = load i32, ptr %12, align 4, !tbaa !8
  %49 = sub nsw i32 %47, %48
  %50 = sub nsw i32 %49, 1
  store i32 %50, ptr %10, align 4, !tbaa !8
  %51 = load i32, ptr %7, align 4, !tbaa !8
  %52 = sub nsw i32 %51, 1
  store i32 %52, ptr %11, align 4, !tbaa !8
  br label %53

53:                                               ; preds = %119, %46
  %54 = load i32, ptr %10, align 4, !tbaa !8
  %55 = icmp sge i32 %54, 0
  br i1 %55, label %56, label %59

56:                                               ; preds = %53
  %57 = load i32, ptr %11, align 4, !tbaa !8
  %58 = icmp sge i32 %57, 0
  br label %59

59:                                               ; preds = %56, %53
  %60 = phi i1 [ false, %53 ], [ %58, %56 ]
  br i1 %60, label %61, label %124

61:                                               ; preds = %59
  %62 = load i32, ptr %12, align 4, !tbaa !8
  %63 = icmp sgt i32 %62, 0
  br i1 %63, label %64, label %96

64:                                               ; preds = %61
  %65 = load ptr, ptr %6, align 8, !tbaa !3
  %66 = load i32, ptr %10, align 4, !tbaa !8
  %67 = sext i32 %66 to i64
  %68 = getelementptr inbounds i16, ptr %65, i64 %67
  %69 = load i16, ptr %68, align 2, !tbaa !16
  %70 = call noundef i32 @_ZL13isLamAlefCharDs(i16 noundef zeroext %69)
  %71 = icmp ne i32 %70, 0
  br i1 %71, label %72, label %96

72:                                               ; preds = %64
  %73 = load ptr, ptr %14, align 8, !tbaa !3
  %74 = load i32, ptr %11, align 4, !tbaa !8
  %75 = sext i32 %74 to i64
  %76 = getelementptr inbounds i16, ptr %73, i64 %75
  store i16 1604, ptr %76, align 2, !tbaa !16
  %77 = load ptr, ptr %6, align 8, !tbaa !3
  %78 = load i32, ptr %10, align 4, !tbaa !8
  %79 = sext i32 %78 to i64
  %80 = getelementptr inbounds i16, ptr %77, i64 %79
  %81 = load i16, ptr %80, align 2, !tbaa !16
  %82 = zext i16 %81 to i32
  %83 = sub nsw i32 %82, 65269
  %84 = sext i32 %83 to i64
  %85 = getelementptr inbounds [8 x i16], ptr @_ZL14convertLamAlef, i64 0, i64 %84
  %86 = load i16, ptr %85, align 2, !tbaa !16
  %87 = load ptr, ptr %14, align 8, !tbaa !3
  %88 = load i32, ptr %11, align 4, !tbaa !8
  %89 = sub nsw i32 %88, 1
  %90 = sext i32 %89 to i64
  %91 = getelementptr inbounds i16, ptr %87, i64 %90
  store i16 %86, ptr %91, align 2, !tbaa !16
  %92 = load i32, ptr %11, align 4, !tbaa !8
  %93 = add nsw i32 %92, -1
  store i32 %93, ptr %11, align 4, !tbaa !8
  %94 = load i32, ptr %12, align 4, !tbaa !8
  %95 = add nsw i32 %94, -1
  store i32 %95, ptr %12, align 4, !tbaa !8
  br label %119

96:                                               ; preds = %64, %61
  %97 = load i32, ptr %12, align 4, !tbaa !8
  %98 = icmp eq i32 %97, 0
  br i1 %98, label %99, label %109

99:                                               ; preds = %96
  %100 = load ptr, ptr %6, align 8, !tbaa !3
  %101 = load i32, ptr %10, align 4, !tbaa !8
  %102 = sext i32 %101 to i64
  %103 = getelementptr inbounds i16, ptr %100, i64 %102
  %104 = load i16, ptr %103, align 2, !tbaa !16
  %105 = call noundef i32 @_ZL13isLamAlefCharDs(i16 noundef zeroext %104)
  %106 = icmp ne i32 %105, 0
  br i1 %106, label %107, label %109

107:                                              ; preds = %99
  %108 = load ptr, ptr %9, align 8, !tbaa !10
  store i32 20, ptr %108, align 4, !tbaa !11
  br label %109

109:                                              ; preds = %107, %99, %96
  %110 = load ptr, ptr %6, align 8, !tbaa !3
  %111 = load i32, ptr %10, align 4, !tbaa !8
  %112 = sext i32 %111 to i64
  %113 = getelementptr inbounds i16, ptr %110, i64 %112
  %114 = load i16, ptr %113, align 2, !tbaa !16
  %115 = load ptr, ptr %14, align 8, !tbaa !3
  %116 = load i32, ptr %11, align 4, !tbaa !8
  %117 = sext i32 %116 to i64
  %118 = getelementptr inbounds i16, ptr %115, i64 %117
  store i16 %114, ptr %118, align 2, !tbaa !16
  br label %119

119:                                              ; preds = %109, %72
  %120 = load i32, ptr %10, align 4, !tbaa !8
  %121 = add nsw i32 %120, -1
  store i32 %121, ptr %10, align 4, !tbaa !8
  %122 = load i32, ptr %11, align 4, !tbaa !8
  %123 = add nsw i32 %122, -1
  store i32 %123, ptr %11, align 4, !tbaa !8
  br label %53, !llvm.loop !52

124:                                              ; preds = %59
  %125 = load i32, ptr %12, align 4, !tbaa !8
  %126 = icmp sgt i32 %125, 0
  br i1 %126, label %127, label %158

127:                                              ; preds = %124
  %128 = load ptr, ptr %14, align 8, !tbaa !3
  %129 = load ptr, ptr %14, align 8, !tbaa !3
  %130 = load i32, ptr %12, align 4, !tbaa !8
  %131 = sext i32 %130 to i64
  %132 = getelementptr inbounds i16, ptr %129, i64 %131
  %133 = load i32, ptr %7, align 4, !tbaa !8
  %134 = call ptr @u_memmove_77(ptr noundef %128, ptr noundef %132, i32 noundef %133)
  %135 = load ptr, ptr %14, align 8, !tbaa !3
  %136 = call i32 @u_strlen_77(ptr noundef %135)
  %137 = load i32, ptr %7, align 4, !tbaa !8
  %138 = icmp slt i32 %136, %137
  br i1 %138, label %139, label %157

139:                                              ; preds = %127
  %140 = load i32, ptr %7, align 4, !tbaa !8
  %141 = sub nsw i32 %140, 1
  store i32 %141, ptr %10, align 4, !tbaa !8
  br label %142

142:                                              ; preds = %153, %139
  %143 = load i32, ptr %10, align 4, !tbaa !8
  %144 = load i32, ptr %7, align 4, !tbaa !8
  %145 = load i32, ptr %12, align 4, !tbaa !8
  %146 = sub nsw i32 %144, %145
  %147 = icmp sge i32 %143, %146
  br i1 %147, label %148, label %156

148:                                              ; preds = %142
  %149 = load ptr, ptr %14, align 8, !tbaa !3
  %150 = load i32, ptr %10, align 4, !tbaa !8
  %151 = sext i32 %150 to i64
  %152 = getelementptr inbounds i16, ptr %149, i64 %151
  store i16 32, ptr %152, align 2, !tbaa !16
  br label %153

153:                                              ; preds = %148
  %154 = load i32, ptr %10, align 4, !tbaa !8
  %155 = add nsw i32 %154, -1
  store i32 %155, ptr %10, align 4, !tbaa !8
  br label %142, !llvm.loop !53

156:                                              ; preds = %142
  br label %157

157:                                              ; preds = %156, %127
  br label %158

158:                                              ; preds = %157, %124
  %159 = load ptr, ptr %6, align 8, !tbaa !3
  %160 = load ptr, ptr %14, align 8, !tbaa !3
  %161 = load i32, ptr %7, align 4, !tbaa !8
  %162 = call ptr @u_memcpy_77(ptr noundef %159, ptr noundef %160, i32 noundef %161)
  %163 = load ptr, ptr %14, align 8, !tbaa !3
  call void @uprv_free_77(ptr noundef %163)
  %164 = load i32, ptr %7, align 4, !tbaa !8
  store i32 %164, ptr %8, align 4, !tbaa !8
  %165 = load i32, ptr %8, align 4, !tbaa !8
  store i32 %165, ptr %5, align 4
  store i32 1, ptr %15, align 4
  br label %166

166:                                              ; preds = %158, %24
  call void @llvm.lifetime.end.p0(i64 8, ptr %14) #8
  call void @llvm.lifetime.end.p0(i64 4, ptr %13) #8
  call void @llvm.lifetime.end.p0(i64 4, ptr %12) #8
  call void @llvm.lifetime.end.p0(i64 4, ptr %11) #8
  call void @llvm.lifetime.end.p0(i64 4, ptr %10) #8
  %167 = load i32, ptr %5, align 4
  ret i32 %167
}