; Function Attrs: mustprogress uwtable
define internal fastcc noundef i32 @_ZL23expandCompositCharAtEndPDsiiP10UErrorCode(ptr noundef nonnull %0, i32 noundef %1, ptr noundef nonnull writeonly captures(none) %2) unnamed_addr #0 {
  %4 = shl i32 %1, 1
  %5 = add i32 %4, 2
  %6 = sext i32 %5 to i64
  %7 = tail call noalias ptr @uprv_malloc_77(i64 noundef %6) #11
  %8 = icmp eq ptr %7, null
  br i1 %8, label %9, label %10

9:                                                ; preds = %3
  store i32 7, ptr %2, align 4, !tbaa !3
  br label %64

10:                                               ; preds = %3
  tail call void @llvm.memset.p0.i64(ptr nonnull align 2 %7, i8 0, i64 %6, i1 false)
  %invariant.gep = getelementptr i8, ptr %0, i64 -2
  %11 = sext i32 %1 to i64
  %gep66 = getelementptr i16, ptr %invariant.gep, i64 %11
  %12 = load i16, ptr %gep66, align 2, !tbaa !9
  %13 = icmp eq i16 %12, 32
  br i1 %13, label %.lr.ph, label %._crit_edge

.lr.ph:                                           ; preds = %10, %.lr.ph
  %indvars.iv = phi i64 [ %indvars.iv.next, %.lr.ph ], [ %11, %10 ]
  %.05667 = phi i32 [ %14, %.lr.ph ], [ 0, %10 ]
  %14 = add nuw nsw i32 %.05667, 1
  %indvars.iv.next = add nsw i64 %indvars.iv, -1
  %gep = getelementptr i16, ptr %invariant.gep, i64 %indvars.iv.next
  %15 = load i16, ptr %gep, align 2, !tbaa !9
  %16 = icmp eq i16 %15, 32
  br i1 %16, label %.lr.ph, label %._crit_edge, !llvm.loop !41

._crit_edge:                                      ; preds = %.lr.ph, %10
  %.056.lcssa = phi i32 [ 0, %10 ], [ %14, %.lr.ph ]
  %17 = xor i32 %.056.lcssa, -1
  %18 = add i32 %1, %17
  %19 = icmp sgt i32 %18, -1
  %20 = icmp sgt i32 %1, 0
  %21 = and i1 %19, %20
  br i1 %21, label %.lr.ph73.preheader, label %._crit_edge74

.lr.ph73.preheader:                               ; preds = %._crit_edge
  %22 = zext nneg i32 %18 to i64
  br label %.lr.ph73

.lr.ph73:                                         ; preds = %.lr.ph73.preheader, %49
  %indvars.iv80 = phi i64 [ %22, %.lr.ph73.preheader ], [ %indvars.iv.next81, %49 ]
  %.171 = phi i32 [ %.056.lcssa, %.lr.ph73.preheader ], [ %.2, %49 ]
  %.05770.in = phi i32 [ %1, %.lr.ph73.preheader ], [ %.158, %49 ]
  %.05770 = add nsw i32 %.05770.in, -1
  %23 = icmp sgt i32 %.171, 0
  br i1 %23, label %24, label %39

24:                                               ; preds = %.lr.ph73
  %25 = getelementptr inbounds nuw i16, ptr %0, i64 %indvars.iv80
  %26 = load i16, ptr %25, align 2, !tbaa !9
  %27 = add i16 %26, 259
  %28 = icmp ult i16 %27, -8
  br i1 %28, label %.thread, label %29

29:                                               ; preds = %24
  %30 = zext nneg i32 %.05770 to i64
  %31 = getelementptr inbounds nuw i16, ptr %7, i64 %30
  store i16 1604, ptr %31, align 2, !tbaa !9
  %32 = zext i16 %26 to i64
  %33 = add nsw i64 %32, -65269
  %34 = getelementptr inbounds [8 x i16], ptr @_ZL14convertLamAlef, i64 0, i64 %33
  %35 = load i16, ptr %34, align 2, !tbaa !9
  %36 = getelementptr i8, ptr %31, i64 -2
  store i16 %35, ptr %36, align 2, !tbaa !9
  %37 = add nsw i32 %.05770.in, -2
  %38 = add nsw i32 %.171, -1
  br label %49

39:                                               ; preds = %.lr.ph73
  %40 = icmp ne i32 %.171, 0
  %41 = getelementptr inbounds nuw i16, ptr %0, i64 %indvars.iv80
  %42 = load i16, ptr %41, align 2, !tbaa !9
  %43 = add i16 %42, 259
  %44 = icmp ult i16 %43, -8
  %or.cond = select i1 %40, i1 true, i1 %44
  br i1 %or.cond, label %.thread, label %45

45:                                               ; preds = %39
  store i32 20, ptr %2, align 4, !tbaa !3
  br label %.thread

.thread:                                          ; preds = %39, %24, %45
  %46 = phi i16 [ %26, %24 ], [ %42, %45 ], [ %42, %39 ]
  %47 = zext nneg i32 %.05770 to i64
  %48 = getelementptr inbounds nuw i16, ptr %7, i64 %47
  store i16 %46, ptr %48, align 2, !tbaa !9
  br label %49

49:                                               ; preds = %.thread, %29
  %.158 = phi i32 [ %37, %29 ], [ %.05770, %.thread ]
  %.2 = phi i32 [ %38, %29 ], [ %.171, %.thread ]
  %indvars.iv.next81 = add nsw i64 %indvars.iv80, -1
  %50 = icmp sgt i64 %indvars.iv80, 0
  %51 = icmp sgt i32 %.158, 0
  %52 = select i1 %50, i1 %51, i1 false
  br i1 %52, label %.lr.ph73, label %._crit_edge74, !llvm.loop !42

._crit_edge74:                                    ; preds = %49, %._crit_edge
  %.1.lcssa = phi i32 [ %.056.lcssa, %._crit_edge ], [ %.2, %49 ]
  %53 = icmp sgt i32 %.1.lcssa, 0
  br i1 %53, label %54, label %.loopexit

54:                                               ; preds = %._crit_edge74
  %55 = zext nneg i32 %.1.lcssa to i64
  %56 = getelementptr inbounds nuw i16, ptr %7, i64 %55
  %57 = tail call ptr @u_memmove_77(ptr noundef nonnull %7, ptr noundef nonnull %56, i32 noundef %1)
  %58 = tail call i32 @u_strlen_77(ptr noundef nonnull %7)
  %59 = icmp slt i32 %58, %1
  br i1 %59, label %.lr.ph78.preheader, label %.loopexit

.lr.ph78.preheader:                               ; preds = %54
  %60 = sub nsw i32 %1, %.1.lcssa
  %61 = sext i32 %60 to i64
  br label %.lr.ph78

.lr.ph78:                                         ; preds = %.lr.ph78.preheader, %.lr.ph78
  %indvars.iv83.in = phi i64 [ %11, %.lr.ph78.preheader ], [ %indvars.iv83, %.lr.ph78 ]
  %indvars.iv83 = add nsw i64 %indvars.iv83.in, -1
  %62 = getelementptr inbounds i16, ptr %7, i64 %indvars.iv83
  store i16 32, ptr %62, align 2, !tbaa !9
  %.not.not = icmp sgt i64 %indvars.iv83, %61
  br i1 %.not.not, label %.lr.ph78, label %.loopexit, !llvm.loop !43

.loopexit:                                        ; preds = %.lr.ph78, %54, %._crit_edge74
  %63 = tail call ptr @u_memcpy_77(ptr noundef nonnull %0, ptr noundef nonnull %7, i32 noundef %1)
  tail call void @uprv_free_77(ptr noundef nonnull %7)
  br label %64

64:                                               ; preds = %.loopexit, %9
  %.061 = phi i32 [ 0, %9 ], [ %1, %.loopexit ]
  ret i32 %.061
}